(dp0
S'11'
p1
(dp2
S'AU+RW'
p3
(dp4
S'x'
p5
(lp6
I130
aI80
aI90
aI270
aI110
aI110
aI220
aI190
aI120
aI90
asS'pos'
p7
(lp8
I27
aI21
aI25
aI32
aI24
aI28
aI32
aI28
aI26
aI23
assS'RW'
p9
(dp10
g5
(lp11
I100
aI90
aI100
aI140
aI80
aI90
aI110
aI180
aI150
aI120
asg7
(lp12
I18
aI24
aI23
aI37
aI22
aI22
aI23
aI32
aI34
aI29
assS'AU'
p13
(dp14
g5
(lp15
I120
aI120
aI160
aI140
aI130
aI120
aI130
aI160
aI160
aI110
asg7
(lp16
I23
aI29
aI34
aI31
aI41
aI23
aI27
aI41
aI35
aI31
assS'CAL'
p17
(dp18
g5
(lp19
I130
aI140
aI260
aI150
aI110
aI140
aI130
aI180
aI140
aI210
asg7
(lp20
I28
aI28
aI29
aI25
aI25
aI30
aI32
aI34
aI35
aI31
asssS'14'
p21
(dp22
g3
(dp23
g5
(lp24
I580
aI310
aI280
aI240
aI460
aI450
aI430
aI290
aI250
aI160
asg7
(lp25
I51
aI48
aI51
aI50
aI53
aI51
aI51
aI51
aI48
aI52
assg9
(dp26
g5
(lp27
I330
aI410
aI220
aI170
aI230
aI190
aI760
aI350
aI540
aI680
asg7
(lp28
I51
aI51
aI50
aI50
aI52
aI52
aI53
aI51
aI49
aI52
assg13
(dp29
g5
(lp30
I420
aI390
aI430
aI200
aI330
aI740
aI160
aI480
aI840
aI170
asg7
(lp31
I51
aI50
aI51
aI52
aI56
aI50
aI48
aI48
aI53
aI50
assg17
(dp32
g5
(lp33
I360
aI420
aI460
aI650
aI220
aI190
aI380
aI170
aI480
aI570
asg7
(lp34
I54
aI54
aI50
aI54
aI53
aI53
aI55
aI52
aI55
aI52
asssS'23'
p35
(dp36
g3
(dp37
g5
(lp38
I760
aI750
aI730
aI800
aI760
aI730
aI680
aI750
aI640
aI790
asg7
(lp39
I193
aI193
aI194
aI194
aI194
aI193
aI189
aI192
aI187
aI192
assg9
(dp40
g5
(lp41
I930
aI950
aI930
aI940
aI930
aI930
aI940
aI940
aI930
aI940
asg7
(lp42
I195
aI194
aI194
aI194
aI194
aI194
aI194
aI194
aI194
aI194
assg13
(dp43
g5
(lp44
I880
aI870
aI880
aI860
aI1170
aI880
aI880
aI870
aI870
aI860
asg7
(lp45
I195
aI195
aI195
aI194
aI194
aI196
aI195
aI194
aI194
aI193
assg17
(dp46
g5
(lp47
I1040
aI1030
aI1060
aI1030
aI1040
aI1030
aI1030
aI1030
aI1030
aI1030
asg7
(lp48
I194
aI194
aI194
aI194
aI195
aI194
aI194
aI194
aI194
aI194
asssS'19'
p49
(dp50
g3
(dp51
g5
(lp52
I1340
aI10970
aI3790
aI3330
aI9010
aI9760
aI9640
aI12560
aI11420
aI3530
asg7
(lp53
I1
aI1
aI1
aI1
aI1
aI1
aI1
aI1
aI1
aI1
assg9
(dp54
g5
(lp55
I11960
aI10360
aI8060
aI5310
aI6710
aI9970
aI1980
aI730
aI6850
aI430
asg7
(lp56
I1
aI1
aI1
aI1
aI1
aI1
aI1
aI1
aI1
aI1
assg13
(dp57
g5
(lp58
I12260
aI1920
aI2640
aI1890
aI6880
aI3290
aI2560
aI10580
aI10
aI3590
asg7
(lp59
I1
aI1
aI1
aI1
aI1
aI1
aI1
aI1
aI1
aI1
assg17
(dp60
g5
(lp61
I2450
aI8990
aI9900
aI6860
aI500
aI1440
aI2880
aI10870
aI1770
aI5280
asg7
(lp62
I1
aI1
aI1
aI1
aI1
aI1
aI1
aI1
aI1
aI1
asssS'28'
p63
(dp64
g3
(dp65
g5
(lp66
I2480
aI3030
aI1790
aI1900
aI2220
aI2350
aI2570
aI1750
aI1950
aI2270
asg7
(lp67
I5
aI5
aI5
aI5
aI5
aI5
aI5
aI5
aI5
aI5
assg9
(dp68
g5
(lp69
I2230
aI3020
aI2220
aI1780
aI2340
aI2230
aI1630
aI2190
aI2320
aI1990
asg7
(lp70
I5
aI5
aI5
aI5
aI5
aI5
aI5
aI5
aI5
aI5
assg13
(dp71
g5
(lp72
I2140
aI1950
aI2280
aI2210
aI1810
aI1710
aI1800
aI2680
aI2390
aI2370
asg7
(lp73
I4
aI5
aI4
aI4
aI5
aI5
aI5
aI5
aI5
aI5
assg17
(dp74
g5
(lp75
I1970
aI2460
aI2500
aI2570
aI3490
aI2040
aI2520
aI2160
aI3110
aI1950
asg7
(lp76
I4
aI5
aI5
aI4
aI5
aI5
aI5
aI5
aI5
aI4
asssS'1'
p77
(dp78
g3
(dp79
g5
(lp80
I900
aI800
aI1000
aI900
aI470
aI910
aI770
aI850
aI930
aI810
asg7
(lp81
I27
aI25
aI27
aI27
aI17
aI27
aI25
aI27
aI27
aI27
assg9
(dp82
g5
(lp83
I860
aI1010
aI470
aI870
aI310
aI920
aI870
aI1020
aI370
aI910
asg7
(lp84
I27
aI27
aI17
aI27
aI16
aI25
aI27
aI28
aI17
aI27
assg13
(dp85
g5
(lp86
I1690
aI1690
aI1750
aI1680
aI1670
aI1650
aI1660
aI1670
aI1860
aI180
asg7
(lp87
I28
aI28
aI28
aI28
aI28
aI28
aI28
aI28
aI28
aI10
assg17
(dp88
g5
(lp89
I1680
aI1660
aI1660
aI1710
aI1670
aI310
aI200
aI1670
aI1670
aI1660
asg7
(lp90
I28
aI28
aI28
aI28
aI28
aI21
aI9
aI28
aI28
aI28
asssS'4'
p91
(dp92
g3
(dp93
g5
(lp94
I450
aI430
aI490
aI460
aI530
aI230
aI390
aI360
aI420
aI530
asg7
(lp95
I168
aI166
aI178
aI183
aI202
aI100
aI162
aI150
aI156
aI202
assg9
(dp96
g5
(lp97
I520
aI470
aI450
aI460
aI590
aI350
aI250
aI290
aI490
aI460
asg7
(lp98
I182
aI175
aI167
aI174
aI177
aI116
aI89
aI110
aI185
aI183
assg13
(dp99
g5
(lp100
I410
aI1050
aI1050
aI490
aI500
aI530
aI430
aI580
aI460
aI460
asg7
(lp101
I171
aI288
aI291
aI180
aI190
aI189
aI167
aI214
aI176
aI176
assg17
(dp102
g5
(lp103
I460
aI520
aI480
aI420
aI490
aI600
aI500
aI440
aI240
aI410
asg7
(lp104
I178
aI191
aI193
aI161
aI186
aI211
aI191
aI164
aI96
aI171
asssS'9'
p105
(dp106
g3
(dp107
g5
(lp108
I740
aI730
aI720
aI750
aI740
aI710
aI730
aI740
aI670
aI740
asg7
(lp109
I96
aI96
aI96
aI96
aI96
aI97
aI96
aI96
aI96
aI96
assg9
(dp110
g5
(lp111
I680
aI680
aI680
aI680
aI690
aI680
aI680
aI680
aI680
aI680
asg7
(lp112
I96
aI96
aI96
aI96
aI96
aI96
aI96
aI96
aI96
aI96
assg13
(dp113
g5
(lp114
I690
aI680
aI690
aI680
aI680
aI760
aI690
aI670
aI680
aI690
asg7
(lp115
I96
aI96
aI96
aI96
aI96
aI97
aI96
aI96
aI96
aI96
assg17
(dp116
g5
(lp117
I770
aI800
aI660
aI660
aI670
aI690
aI660
aI680
aI810
aI670
asg7
(lp118
I97
aI97
aI96
aI96
aI96
aI96
aI96
aI96
aI97
aI96
asss.